; Function Attrs: mustprogress nofree norecurse nosync nounwind willreturn memory(write, argmem: readwrite, inaccessiblemem: none) uwtable
define dso_local noundef zeroext i1 @_ZN19btGenericMemoryPool10freeMemoryEPv(ptr nocapture noundef nonnull align 8 dereferenceable(56) %this, ptr noundef %pointer) local_unnamed_addr #1 align 2 {
entry:
  %0 = load ptr, ptr %this, align 8
  %cmp = icmp ugt ptr %0, %pointer
  br i1 %cmp, label %return, label %if.end

if.end:                                           ; preds = %entry
  %sub.ptr.lhs.cast = ptrtoint ptr %pointer to i64
  %sub.ptr.rhs.cast = ptrtoint ptr %0 to i64
  %sub.ptr.sub = sub i64 %sub.ptr.lhs.cast, %sub.ptr.rhs.cast
  %m_element_size.i = getelementptr inbounds i8, ptr %this, i64 40
  %1 = load i64, ptr %m_element_size.i, align 8
  %m_max_element_count.i = getelementptr inbounds i8, ptr %this, i64 48
  %2 = load i64, ptr %m_max_element_count.i, align 8
  %mul.i = mul i64 %2, %1
  %cmp2.not = icmp ult i64 %sub.ptr.sub, %mul.i
  br i1 %cmp2.not, label %if.end4, label %return

if.end4:                                          ; preds = %if.end
  %div = udiv i64 %sub.ptr.sub, %1
  %m_free_nodes = getelementptr inbounds i8, ptr %this, i64 8
  %3 = load ptr, ptr %m_free_nodes, align 8
  %m_free_nodes_count = getelementptr inbounds i8, ptr %this, i64 32
  %4 = load i64, ptr %m_free_nodes_count, align 8
  %arrayidx = getelementptr inbounds i64, ptr %3, i64 %4
  store i64 %div, ptr %arrayidx, align 8
  %5 = load i64, ptr %m_free_nodes_count, align 8
  %inc = add i64 %5, 1
  store i64 %inc, ptr %m_free_nodes_count, align 8
  br label %return

return:                                           ; preds = %if.end, %entry, %if.end4
  %retval.0 = phi i1 [ true, %if.end4 ], [ false, %entry ], [ false, %if.end ]
  ret i1 %retval.0
}